target datalayout = "e-m:e-p270:32:32-p271:32:32-p272:64:64-i64:64-i128:128-f80:128-n8:16:32:64-S128"
target triple = "x86_64-pc-linux-gnu"

%class.btSimulationIslandManagerMt = type { %class.btSimulationIslandManager.base, [7 x i8], %class.btAlignedObjectArray.4, %class.btAlignedObjectArray.4, %class.btAlignedObjectArray.4, %class.btAlignedObjectArray.4, ptr, i32, i32, ptr }
%class.btSimulationIslandManager.base = type <{ ptr, %class.btUnionFind, %class.btAlignedObjectArray.0, %class.btAlignedObjectArray.2, i8 }>
%class.btUnionFind = type { %class.btAlignedObjectArray }
%class.btAlignedObjectArray = type <{ [4 x i8], i32, i32, [4 x i8], ptr, i8, [7 x i8] }>
%class.btAlignedObjectArray.0 = type <{ [4 x i8], i32, i32, [4 x i8], ptr, i8, [7 x i8] }>
%class.btAlignedObjectArray.2 = type <{ [4 x i8], i32, i32, [4 x i8], ptr, i8, [7 x i8] }>
%class.btAlignedObjectArray.4 = type <{ [4 x i8], i32, i32, [4 x i8], ptr, i8, [7 x i8] }>

; Function Attrs: mustprogress uwtable
define linkonce_odr dso_local void @_ZN18btAlignedAllocatorIPN27btSimulationIslandManagerMt6IslandELj16EE10deallocateEPS2_(ptr noundef nonnull align 1 dereferenceable(1) %0, ptr noundef %1) #2 comdat align 2 {
  %3 = alloca ptr, align 8
  %4 = alloca ptr, align 8
  store ptr %0, ptr %3, align 8, !tbaa !191
  store ptr %1, ptr %4, align 8, !tbaa !53
  %5 = load ptr, ptr %4, align 8, !tbaa !53
  call void @_Z21btAlignedFreeInternalPv(ptr noundef %5)
  ret void
}

; Function Attrs: inlinehint mustprogress uwtable
define linkonce_odr dso_local void @_ZN20btAlignedObjectArrayIPN27btSimulationIslandManagerMt6IslandEE10deallocateEv(ptr noundef nonnull align 8 dereferenceable(25) %0) #9 comdat align 2 {
  %2 = alloca ptr, align 8
  store ptr %0, ptr %2, align 8, !tbaa !37
  %3 = load ptr, ptr %2, align 8
  %4 = getelementptr inbounds nuw %class.btAlignedObjectArray.4, ptr %3, i32 0, i32 4
  %5 = load ptr, ptr %4, align 8, !tbaa !52
  %6 = icmp ne ptr %5, null
  br i1 %6, label %7, label %16

7:                                                ; preds = %1
  %8 = getelementptr inbounds nuw %class.btAlignedObjectArray.4, ptr %3, i32 0, i32 5
  %9 = load i8, ptr %8, align 8, !tbaa !193, !range !87, !noundef !88
  %10 = trunc i8 %9 to i1
  br i1 %10, label %11, label %14

11:                                               ; preds = %7
  %12 = getelementptr inbounds nuw %class.btAlignedObjectArray.4, ptr %3, i32 0, i32 4
  %13 = load ptr, ptr %12, align 8, !tbaa !52
  call void @_ZN18btAlignedAllocatorIPN27btSimulationIslandManagerMt6IslandELj16EE10deallocateEPS2_(ptr noundef nonnull align 1 dereferenceable(1) %3, ptr noundef %13)
  br label %14

14:                                               ; preds = %11, %7
  %15 = getelementptr inbounds nuw %class.btAlignedObjectArray.4, ptr %3, i32 0, i32 4
  store ptr null, ptr %15, align 8, !tbaa !52
  br label %16

16:                                               ; preds = %14, %1
  ret void
}

; Function Attrs: inlinehint mustprogress nounwind uwtable
define linkonce_odr dso_local void @_ZN20btAlignedObjectArrayIPN27btSimulationIslandManagerMt6IslandEE7destroyEii(ptr noundef nonnull align 8 dereferenceable(25) %0, i32 noundef %1, i32 noundef %2) #4 comdat align 2 {
  %4 = alloca ptr, align 8
  %5 = alloca i32, align 4
  %6 = alloca i32, align 4
  %7 = alloca i32, align 4
  store ptr %0, ptr %4, align 8, !tbaa !37
  store i32 %1, ptr %5, align 4, !tbaa !9
  store i32 %2, ptr %6, align 4, !tbaa !9
  call void @llvm.lifetime.start.p0(i64 4, ptr %7) #13
  %8 = load i32, ptr %5, align 4, !tbaa !9
  store i32 %8, ptr %7, align 4, !tbaa !9
  br label %9

9:                                                ; preds = %14, %3
  %10 = load i32, ptr %7, align 4, !tbaa !9
  %11 = load i32, ptr %6, align 4, !tbaa !9
  %12 = icmp slt i32 %10, %11
  br i1 %12, label %13, label %17

13:                                               ; preds = %9
  br label %14

14:                                               ; preds = %13
  %15 = load i32, ptr %7, align 4, !tbaa !9
  %16 = add nsw i32 %15, 1
  store i32 %16, ptr %7, align 4, !tbaa !9
  br label %9, !llvm.loop !195

17:                                               ; preds = %9
  call void @llvm.lifetime.end.p0(i64 4, ptr %7) #13
  ret void
}

; Function Attrs: inlinehint mustprogress nounwind uwtable
define linkonce_odr dso_local noundef i32 @_ZNK20btAlignedObjectArrayIPN27btSimulationIslandManagerMt6IslandEE4sizeEv(ptr noundef nonnull align 8 dereferenceable(25) %0) #4 comdat align 2 {
  %2 = alloca ptr, align 8
  store ptr %0, ptr %2, align 8, !tbaa !37
  %3 = load ptr, ptr %2, align 8
  %4 = getelementptr inbounds nuw %class.btAlignedObjectArray.4, ptr %3, i32 0, i32 1
  %5 = load i32, ptr %4, align 4, !tbaa !51
  ret i32 %5
}

; Function Attrs: noinline noreturn nounwind uwtable
define linkonce_odr hidden void @__clang_call_terminate(ptr noundef %0) #7 comdat {
  %2 = call ptr @__cxa_begin_catch(ptr %0) #13
  call void @_ZSt9terminatev() #14
  unreachable
}

; Function Attrs: inlinehint mustprogress uwtable
define linkonce_odr dso_local void @_ZN20btAlignedObjectArrayIPN27btSimulationIslandManagerMt6IslandEE5clearEv(ptr noundef nonnull align 8 dereferenceable(25) %0) #9 comdat align 2 {
  %2 = alloca ptr, align 8
  store ptr %0, ptr %2, align 8, !tbaa !37
  %3 = load ptr, ptr %2, align 8
  %4 = call noundef i32 @_ZNK20btAlignedObjectArrayIPN27btSimulationIslandManagerMt6IslandEE4sizeEv(ptr noundef nonnull align 8 dereferenceable(25) %3)
  call void @_ZN20btAlignedObjectArrayIPN27btSimulationIslandManagerMt6IslandEE7destroyEii(ptr noundef nonnull align 8 dereferenceable(25) %3, i32 noundef 0, i32 noundef %4)
  call void @_ZN20btAlignedObjectArrayIPN27btSimulationIslandManagerMt6IslandEE10deallocateEv(ptr noundef nonnull align 8 dereferenceable(25) %3)
  call void @_ZN20btAlignedObjectArrayIPN27btSimulationIslandManagerMt6IslandEE4initEv(ptr noundef nonnull align 8 dereferenceable(25) %3)
  ret void
}

; Function Attrs: inlinehint mustprogress nounwind uwtable
define linkonce_odr dso_local void @_ZN20btAlignedObjectArrayIPN27btSimulationIslandManagerMt6IslandEE4initEv(ptr noundef nonnull align 8 dereferenceable(25) %0) #4 comdat align 2 {
  %2 = alloca ptr, align 8
  store ptr %0, ptr %2, align 8, !tbaa !37
  %3 = load ptr, ptr %2, align 8
  %4 = getelementptr inbounds nuw %class.btAlignedObjectArray.4, ptr %3, i32 0, i32 5
  store i8 1, ptr %4, align 8, !tbaa !193
  %5 = getelementptr inbounds nuw %class.btAlignedObjectArray.4, ptr %3, i32 0, i32 4
  store ptr null, ptr %5, align 8, !tbaa !52
  %6 = getelementptr inbounds nuw %class.btAlignedObjectArray.4, ptr %3, i32 0, i32 1
  store i32 0, ptr %6, align 4, !tbaa !51
  %7 = getelementptr inbounds nuw %class.btAlignedObjectArray.4, ptr %3, i32 0, i32 2
  store i32 0, ptr %7, align 8, !tbaa !194
  ret void
}

; Function Attrs: mustprogress nounwind uwtable
define linkonce_odr dso_local void @_ZN18btAlignedAllocatorIPN27btSimulationIslandManagerMt6IslandELj16EEC2Ev(ptr noundef nonnull align 1 dereferenceable(1) %0) unnamed_addr #1 comdat align 2 {
  %2 = alloca ptr, align 8
  store ptr %0, ptr %2, align 8, !tbaa !191
  ret void
}

; Function Attrs: mustprogress nounwind uwtable
define linkonce_odr dso_local void @_ZN20btAlignedObjectArrayIPN27btSimulationIslandManagerMt6IslandEED2Ev(ptr noundef nonnull align 8 dereferenceable(25) %0) unnamed_addr #1 comdat align 2 personality ptr @__gxx_personality_v0 {
  %2 = alloca ptr, align 8
  store ptr %0, ptr %2, align 8, !tbaa !37
  %3 = load ptr, ptr %2, align 8
  invoke void @_ZN20btAlignedObjectArrayIPN27btSimulationIslandManagerMt6IslandEE5clearEv(ptr noundef nonnull align 8 dereferenceable(25) %3)
          to label %4 unwind label %5

4:                                                ; preds = %1
  ret void

5:                                                ; preds = %1
  %6 = landingpad { ptr, i32 }
          catch ptr null
  %7 = extractvalue { ptr, i32 } %6, 0
  call void @__clang_call_terminate(ptr %7) #14
  unreachable
}

; Function Attrs: inlinehint mustprogress nounwind uwtable
define linkonce_odr dso_local noundef i32 @_Z13calcBatchCostiii(i32 noundef %0, i32 noundef %1, i32 noundef %2) #4 comdat {
  %4 = alloca i32, align 4
  %5 = alloca i32, align 4
  %6 = alloca i32, align 4
  %7 = alloca i32, align 4
  store i32 %0, ptr %4, align 4, !tbaa !9
  store i32 %1, ptr %5, align 4, !tbaa !9
  store i32 %2, ptr %6, align 4, !tbaa !9
  call void @llvm.lifetime.start.p0(i64 4, ptr %7) #13
  %8 = load i32, ptr %4, align 4, !tbaa !9
  %9 = load i32, ptr %5, align 4, !tbaa !9
  %10 = mul nsw i32 8, %9
  %11 = add nsw i32 %8, %10
  %12 = load i32, ptr %6, align 4, !tbaa !9
  %13 = mul nsw i32 4, %12
  %14 = add nsw i32 %11, %13
  store i32 %14, ptr %7, align 4, !tbaa !9
  %15 = load i32, ptr %7, align 4, !tbaa !9
  call void @llvm.lifetime.end.p0(i64 4, ptr %7) #13
  ret i32 %15
}

; Function Attrs: mustprogress uwtable
define linkonce_odr dso_local void @_ZN20btAlignedObjectArrayIPN27btSimulationIslandManagerMt6IslandEEC2Ev(ptr noundef nonnull align 8 dereferenceable(25) %0) unnamed_addr #2 comdat align 2 {
  %2 = alloca ptr, align 8
  store ptr %0, ptr %2, align 8, !tbaa !37
  %3 = load ptr, ptr %2, align 8
  call void @_ZN18btAlignedAllocatorIPN27btSimulationIslandManagerMt6IslandELj16EEC2Ev(ptr noundef nonnull align 1 dereferenceable(1) %3)
  call void @_ZN20btAlignedObjectArrayIPN27btSimulationIslandManagerMt6IslandEE4initEv(ptr noundef nonnull align 8 dereferenceable(25) %3)
  ret void
}

; Function Attrs: mustprogress uwtable
define dso_local void @_ZN27btSimulationIslandManagerMtC2Ev(ptr noundef nonnull align 8 dereferenceable(264) %0) unnamed_addr #2 align 2 personality ptr @__gxx_personality_v0 {
  %2 = alloca ptr, align 8
  %3 = alloca ptr, align 8
  %4 = alloca i32, align 4
  store ptr %0, ptr %2, align 8, !tbaa !12
  %5 = load ptr, ptr %2, align 8
  call void @_ZN25btSimulationIslandManagerC2Ev(ptr noundef nonnull align 8 dereferenceable(105) %5)
  store ptr getelementptr inbounds inrange(-16, 96) ({ [14 x ptr] }, ptr @_ZTV27btSimulationIslandManagerMt, i32 0, i32 0, i32 2), ptr %5, align 8, !tbaa !14
  %6 = getelementptr inbounds nuw %class.btSimulationIslandManagerMt, ptr %5, i32 0, i32 2
  invoke void @_ZN20btAlignedObjectArrayIPN27btSimulationIslandManagerMt6IslandEEC2Ev(ptr noundef nonnull align 8 dereferenceable(25) %6)
          to label %7 unwind label %20

7:                                                ; preds = %1
  %8 = getelementptr inbounds nuw %class.btSimulationIslandManagerMt, ptr %5, i32 0, i32 3
  invoke void @_ZN20btAlignedObjectArrayIPN27btSimulationIslandManagerMt6IslandEEC2Ev(ptr noundef nonnull align 8 dereferenceable(25) %8)
          to label %9 unwind label %24

9:                                                ; preds = %7
  %10 = getelementptr inbounds nuw %class.btSimulationIslandManagerMt, ptr %5, i32 0, i32 4
  invoke void @_ZN20btAlignedObjectArrayIPN27btSimulationIslandManagerMt6IslandEEC2Ev(ptr noundef nonnull align 8 dereferenceable(25) %10)
          to label %11 unwind label %28

11:                                               ; preds = %9
  %12 = getelementptr inbounds nuw %class.btSimulationIslandManagerMt, ptr %5, i32 0, i32 5
  invoke void @_ZN20btAlignedObjectArrayIPN27btSimulationIslandManagerMt6IslandEEC2Ev(ptr noundef nonnull align 8 dereferenceable(25) %12)
          to label %13 unwind label %32

13:                                               ; preds = %11
  %14 = invoke noundef i32 @_Z13calcBatchCostiii(i32 noundef 0, i32 noundef 128, i32 noundef 0)
          to label %15 unwind label %36

15:                                               ; preds = %13
  %16 = getelementptr inbounds nuw %class.btSimulationIslandManagerMt, ptr %5, i32 0, i32 7
  store i32 %14, ptr %16, align 8, !tbaa !16
  %17 = getelementptr inbounds nuw %class.btSimulationIslandManagerMt, ptr %5, i32 0, i32 8
  store i32 32, ptr %17, align 4, !tbaa !34
  %18 = getelementptr inbounds nuw %class.btSimulationIslandManagerMt, ptr %5, i32 0, i32 9
  store ptr @_ZN27btSimulationIslandManagerMt22parallelIslandDispatchEP20btAlignedObjectArrayIPNS_6IslandEERKNS_12SolverParamsE, ptr %18, align 8, !tbaa !35
  %19 = getelementptr inbounds nuw %class.btSimulationIslandManagerMt, ptr %5, i32 0, i32 6
  store ptr null, ptr %19, align 8, !tbaa !36
  ret void

20:                                               ; preds = %1
  %21 = landingpad { ptr, i32 }
          cleanup
  %22 = extractvalue { ptr, i32 } %21, 0
  store ptr %22, ptr %3, align 8
  %23 = extractvalue { ptr, i32 } %21, 1
  store i32 %23, ptr %4, align 4
  br label %43

24:                                               ; preds = %7
  %25 = landingpad { ptr, i32 }
          cleanup
  %26 = extractvalue { ptr, i32 } %25, 0
  store ptr %26, ptr %3, align 8
  %27 = extractvalue { ptr, i32 } %25, 1
  store i32 %27, ptr %4, align 4
  br label %42

28:                                               ; preds = %9
  %29 = landingpad { ptr, i32 }
          cleanup
  %30 = extractvalue { ptr, i32 } %29, 0
  store ptr %30, ptr %3, align 8
  %31 = extractvalue { ptr, i32 } %29, 1
  store i32 %31, ptr %4, align 4
  br label %41

32:                                               ; preds = %11
  %33 = landingpad { ptr, i32 }
          cleanup
  %34 = extractvalue { ptr, i32 } %33, 0
  store ptr %34, ptr %3, align 8
  %35 = extractvalue { ptr, i32 } %33, 1
  store i32 %35, ptr %4, align 4
  br label %40

36:                                               ; preds = %13
  %37 = landingpad { ptr, i32 }
          cleanup
  %38 = extractvalue { ptr, i32 } %37, 0
  store ptr %38, ptr %3, align 8
  %39 = extractvalue { ptr, i32 } %37, 1
  store i32 %39, ptr %4, align 4
  call void @_ZN20btAlignedObjectArrayIPN27btSimulationIslandManagerMt6IslandEED2Ev(ptr noundef nonnull align 8 dereferenceable(25) %12) #13
  br label %40

40:                                               ; preds = %36, %32
  call void @_ZN20btAlignedObjectArrayIPN27btSimulationIslandManagerMt6IslandEED2Ev(ptr noundef nonnull align 8 dereferenceable(25) %10) #13
  br label %41

41:                                               ; preds = %40, %28
  call void @_ZN20btAlignedObjectArrayIPN27btSimulationIslandManagerMt6IslandEED2Ev(ptr noundef nonnull align 8 dereferenceable(25) %8) #13
  br label %42

42:                                               ; preds = %41, %24
  call void @_ZN20btAlignedObjectArrayIPN27btSimulationIslandManagerMt6IslandEED2Ev(ptr noundef nonnull align 8 dereferenceable(25) %6) #13
  br label %43

43:                                               ; preds = %42, %20
  call void @_ZN25btSimulationIslandManagerD2Ev(ptr noundef nonnull align 8 dereferenceable(105) %5) #13
  br label %44

44:                                               ; preds = %43
  %45 = load ptr, ptr %3, align 8
  %46 = load i32, ptr %4, align 4
  %47 = insertvalue { ptr, i32 } poison, ptr %45, 0
  %48 = insertvalue { ptr, i32 } %47, i32 %46, 1
  resume { ptr, i32 } %48
}