; Function Attrs: mustprogress uwtable
define dso_local void @_ZN27btSimulationIslandManagerMtC2Ev(ptr noundef nonnull align 8 dereferenceable(264) %0) unnamed_addr #0 align 2 personality ptr @__gxx_personality_v0 {
  tail call void @_ZN25btSimulationIslandManagerC2Ev(ptr noundef nonnull align 8 dereferenceable(105) %0)
  store ptr getelementptr inbounds nuw inrange(-16, 96) (i8, ptr @_ZTV27btSimulationIslandManagerMt, i64 16), ptr %0, align 8, !tbaa !4
  %2 = getelementptr inbounds nuw i8, ptr %0, i64 136
  store i8 1, ptr %2, align 8, !tbaa !7
  %3 = getelementptr inbounds nuw i8, ptr %0, i64 128
  store ptr null, ptr %3, align 8, !tbaa !15
  %4 = getelementptr inbounds nuw i8, ptr %0, i64 116
  store i32 0, ptr %4, align 4, !tbaa !16
  %5 = getelementptr inbounds nuw i8, ptr %0, i64 120
  store i32 0, ptr %5, align 8, !tbaa !17
  %6 = getelementptr inbounds nuw i8, ptr %0, i64 168
  store i8 1, ptr %6, align 8, !tbaa !7
  %7 = getelementptr inbounds nuw i8, ptr %0, i64 160
  store ptr null, ptr %7, align 8, !tbaa !15
  %8 = getelementptr inbounds nuw i8, ptr %0, i64 148
  store i32 0, ptr %8, align 4, !tbaa !16
  %9 = getelementptr inbounds nuw i8, ptr %0, i64 152
  store i32 0, ptr %9, align 8, !tbaa !17
  %10 = getelementptr inbounds nuw i8, ptr %0, i64 200
  store i8 1, ptr %10, align 8, !tbaa !7
  %11 = getelementptr inbounds nuw i8, ptr %0, i64 192
  store ptr null, ptr %11, align 8, !tbaa !15
  %12 = getelementptr inbounds nuw i8, ptr %0, i64 180
  store i32 0, ptr %12, align 4, !tbaa !16
  %13 = getelementptr inbounds nuw i8, ptr %0, i64 184
  store i32 0, ptr %13, align 8, !tbaa !17
  %14 = getelementptr inbounds nuw i8, ptr %0, i64 232
  store i8 1, ptr %14, align 8, !tbaa !7
  %15 = getelementptr inbounds nuw i8, ptr %0, i64 224
  store ptr null, ptr %15, align 8, !tbaa !15
  %16 = getelementptr inbounds nuw i8, ptr %0, i64 212
  store i32 0, ptr %16, align 4, !tbaa !16
  %17 = getelementptr inbounds nuw i8, ptr %0, i64 216
  store i32 0, ptr %17, align 8, !tbaa !17
  %18 = getelementptr inbounds nuw i8, ptr %0, i64 248
  store i32 1024, ptr %18, align 8, !tbaa !18
  %19 = getelementptr inbounds nuw i8, ptr %0, i64 252
  store i32 32, ptr %19, align 4, !tbaa !32
  %20 = getelementptr inbounds nuw i8, ptr %0, i64 256
  store ptr @_ZN27btSimulationIslandManagerMt22parallelIslandDispatchEP20btAlignedObjectArrayIPNS_6IslandEERKNS_12SolverParamsE, ptr %20, align 8, !tbaa !33
  %21 = getelementptr inbounds nuw i8, ptr %0, i64 240
  store ptr null, ptr %21, align 8, !tbaa !34
  ret void
}